target datalayout = "e-m:e-p270:32:32-p271:32:32-p272:64:64-i64:64-i128:128-f80:128-n8:16:32:64-S128"
target triple = "x86_64-pc-linux-gnu"

%struct.aom_codec_priv = type { ptr, i64, %struct.anon }
%struct.anon = type { %struct.aom_fixed_buf, i32, i32, %struct.aom_codec_cx_pkt }
%struct.aom_fixed_buf = type { ptr, i64 }
%struct.aom_codec_cx_pkt = type { i32, %union.anon.0 }
%union.anon.0 = type { %struct.aom_psnr_pkt }
%struct.aom_psnr_pkt = type { [4 x i32], [4 x i64], [4 x double], [4 x i32], [4 x i64], [4 x double] }
%struct.aom_codec_alg_priv = type { %struct.aom_codec_priv, %struct.aom_codec_dec_cfg, %struct.aom_codec_stream_info, %struct.aom_image, i32, i32, i32, ptr, i32, i32, i32, i32, i32, i32, i32, i32, %struct.EXTERNAL_REFERENCES, i32, i32, i32, ptr, %struct.aom_image, [4 x %struct.aom_codec_frame_buffer], i64, i32, ptr, ptr, ptr, ptr }
%struct.aom_codec_dec_cfg = type { i32, i32, i32, i32 }
%struct.aom_codec_stream_info = type { i32, i32, i32, i32, i32, i32 }
%struct.EXTERNAL_REFERENCES = type { [128 x %struct.yv12_buffer_config], i32 }
%struct.yv12_buffer_config = type { %union.anon.2, %union.anon.4, %union.anon.6, %union.anon.8, %union.anon.10, %union.anon.12, i32, [3 x ptr], ptr, i32, ptr, i64, i32, i64, i32, i32, i32, i32, i32, i32, i8, i32, i32, i32, i32, i32, i32, ptr }
%union.anon.2 = type { %struct.anon.3 }
%struct.anon.3 = type { i32, i32 }
%union.anon.4 = type { %struct.anon.5 }
%struct.anon.5 = type { i32, i32 }
%union.anon.6 = type { %struct.anon.7 }
%struct.anon.7 = type { i32, i32 }
%union.anon.8 = type { %struct.anon.9 }
%struct.anon.9 = type { i32, i32 }
%union.anon.10 = type { %struct.anon.11 }
%struct.anon.11 = type { i32, i32 }
%union.anon.12 = type { %struct.anon.13 }
%struct.anon.13 = type { ptr, ptr, ptr }
%struct.aom_image = type { i32, i32, i32, i32, i32, i32, i32, i32, i32, i32, i32, i32, i32, i32, i32, i32, [3 x ptr], [3 x i32], i64, i32, i32, i32, ptr, ptr, i32, i32, ptr, ptr }
%struct.aom_codec_frame_buffer = type { ptr, i64, ptr }
%struct.AVxWorker = type { ptr, i32, ptr, ptr, ptr, ptr, i32 }
%struct.FrameWorkerData = type { ptr, ptr, ptr, i64, ptr, i32, i32, i32 }
%struct.AV1Decoder = type { %struct.DecoderCodingBlock, %struct.AV1Common, %struct.AVxWorker, %struct.AV1LfSyncData, %struct.AV1LrSyncData, %struct.AV1LrStruct, ptr, i32, ptr, [16 x i8], %struct.ThreadData, ptr, i32, [64 x [64 x %struct.TileBufferDec]], %struct.AV1DecTileMTData, i32, [4 x ptr], i64, i32, i32, i32, i32, i32, i32, i32, i32, i32, i32, i32, i32, i32, i32, i32, i32, i32, i64, %struct.DataBuffer, i32, i32, i32, i32, i32, i32, %struct.EXTERNAL_REFERENCES, %struct.yv12_buffer_config, ptr, i32, i32, ptr, ptr, %struct.AV1DecRowMTInfo, ptr, i32, i32, i32, i32, [8 x i32], i32, i32, i32, %struct.aom_s_frame_info, [28 x i8] }
%struct.DecoderCodingBlock = type { %struct.macroblockd, i32, [2 x ptr], [3 x ptr], [3 x i16], [3 x ptr], [3 x i16], [29 x i8], [29 x i8] }
%struct.macroblockd = type { i32, i32, i32, i8, [3 x %struct.macroblockd_plane], %struct.TileInfo, ptr, i8, i8, i8, i8, ptr, ptr, ptr, ptr, ptr, i32, i32, i32, i32, i32, [2 x ptr], ptr, [3 x ptr], [3 x [32 x i8]], ptr, [32 x i8], ptr, ptr, [32 x i8], [3 x %struct.WienerInfo], [3 x %struct.SgrprojInfo], i8, i8, [29 x [8 x %struct.candidate_mv]], [29 x [8 x i16]], i8, i8, [8 x i8], ptr, i32, [8 x i32], [8 x i32], i32, i32, ptr, ptr, i8, [4 x i8], [4 x i8], [7 x i8], [32768 x i8], %struct.cfl_ctx, [2 x i16], ptr, [2 x ptr] }
%struct.macroblockd_plane = type { i8, i32, i32, %struct.buf_2d, [2 x %struct.buf_2d], ptr, ptr, [8 x [2 x i16]], ptr, i8, i8, [8 x [19 x ptr]], [8 x [19 x ptr]] }
%struct.buf_2d = type { ptr, ptr, i32, i32, i32 }
%struct.TileInfo = type { i32, i32, i32, i32, i32, i32 }
%struct.WienerInfo = type { [8 x i16], [8 x i16] }
%struct.SgrprojInfo = type { i32, [2 x i32] }
%struct.candidate_mv = type { %union.int_mv, %union.int_mv }
%union.int_mv = type { i32 }
%struct.cfl_ctx = type { [1024 x i16], [1024 x i16], [2 x i32], i32, [2 x [32 x i16]], i32, i32, i32, i32, i32, i32 }
%struct.AV1Common = type { %struct.CurrentFrame, %struct.aom_internal_error_info, i32, i32, i32, i32, i32, i32, i8, i8, [33 x i32], i32, ptr, ptr, [8 x i32], %struct.scale_factors, [8 x %struct.scale_factors], [8 x ptr], i32, i32, i32, %struct.FeatureFlags, %struct.CommonModeInfoParams, %struct.CommonQuantParams, %struct.segmentation, ptr, [8 x i8], %struct.loop_filter_info_n, %struct.loopfilter, [3 x %struct.RestorationInfo], ptr, ptr, %struct.yv12_buffer_config, %struct.CdefInfo, %struct.aom_film_grain_t, %struct.DeltaQInfo, [8 x %struct.WarpedMotionParams], %struct.SequenceHeader, ptr, ptr, %struct.CommonTileParams, ptr, %struct.CommonContexts, i32, [8 x i32], ptr, i32, [8 x i32], [8 x i8], i32, i32, i32, i32 }
%struct.CurrentFrame = type { i8, i8, i32, i32, i32, %struct.SkipModeInfo, i32, i32 }
%struct.SkipModeInfo = type { i32, i32, i32, i32 }
%struct.aom_internal_error_info = type { i32, i32, [200 x i8], i32, [1 x %struct.__jmp_buf_tag] }
%struct.__jmp_buf_tag = type { [8 x i64], i32, %struct.__sigset_t }
%struct.__sigset_t = type { [16 x i64] }
%struct.scale_factors = type { i32, i32, i32, i32, ptr, ptr }
%struct.FeatureFlags = type { i8, i8, i8, i8, i8, i8, i8, i8, i8, i8, i8, i8, i8, i8, i32, i32, i8 }
%struct.CommonModeInfoParams = type { i32, i32, i32, i32, i32, ptr, i32, i32, i8, ptr, i32, i32, ptr, ptr, ptr, ptr }
%struct.CommonQuantParams = type { i32, i32, i32, i32, i32, i32, [8 x [2 x i16]], [8 x [2 x i16]], [8 x [2 x i16]], [16 x [3 x [19 x ptr]]], [16 x [3 x [19 x ptr]]], [8 x [19 x ptr]], [8 x [19 x ptr]], [8 x [19 x ptr]], i8, i32, i32, i32 }
%struct.segmentation = type { i8, i8, i8, i8, [8 x [8 x i16]], [8 x i32], i32, i8 }
%struct.loop_filter_info_n = type { [64 x %struct.loop_filter_thresh], [3 x [8 x [2 x [8 x [2 x i8]]]]] }
%struct.loop_filter_thresh = type { [16 x i8], [16 x i8], [16 x i8] }
%struct.loopfilter = type { [2 x i32], i32, i32, i32, i8, i8, [8 x i8], [2 x i8], i32 }
%struct.RestorationInfo = type { i32, i32, i32, i32, i32, ptr, %struct.RestorationStripeBoundaries, i32 }
%struct.RestorationStripeBoundaries = type { ptr, ptr, i32, i32 }
%struct.CdefInfo = type { i32, i32, [16 x i32], [16 x i32], i32 }
%struct.aom_film_grain_t = type { i32, i32, [14 x [2 x i32]], i32, [10 x [2 x i32]], i32, [10 x [2 x i32]], i32, i32, i32, [24 x i32], [25 x i32], [25 x i32], i32, i32, i32, i32, i32, i32, i32, i32, i32, i32, i32, i32, i16 }
%struct.DeltaQInfo = type { i32, i32, i32, i32, i32 }
%struct.WarpedMotionParams = type { [8 x i32], i16, i16, i16, i16, i8, i8 }
%struct.SequenceHeader = type { i32, i32, i32, i32, i8, i32, i32, i8, i32, i32, %struct.OrderHintInfo, i8, i8, i8, i8, i8, i8, i8, i8, i8, i8, i8, i8, i8, i8, i32, i8, i8, i32, i32, i32, i32, i32, i32, i32, i8, i8, i32, [32 x i32], i32, %struct.aom_timing, i8, %struct.aom_dec_model_info, i8, [32 x i8], [32 x i8], [33 x %struct.aom_dec_model_op_parameters] }
%struct.OrderHintInfo = type { i32, i32, i32, i32 }
%struct.aom_timing = type { i32, i32, i32, i32 }
%struct.aom_dec_model_info = type { i32, i32, i32, i32 }
%struct.aom_dec_model_op_parameters = type { i32, i64, i64, i32, i32, i32, i32, i32 }
%struct.CommonTileParams = type { i32, i32, i32, i32, i32, i32, i32, i32, i32, i32, i32, i32, i32, i32, i32, [65 x i32], [65 x i32], i32, i32 }
%struct.CommonContexts = type { ptr, [3 x ptr], ptr, i32, i32, i32 }
%struct.AV1LfSyncData = type { [3 x ptr], [3 x ptr], [3 x ptr], i32, i32, ptr, i32, ptr, ptr, i32, i32 }
%struct.AV1LrSyncData = type { [3 x ptr], [3 x ptr], [3 x ptr], i32, i32, i32, i32, ptr, ptr, ptr, i32, i32 }
%struct.AV1LrStruct = type { ptr, [3 x %struct.FilterFrameCtxt], ptr, ptr }
%struct.FilterFrameCtxt = type { ptr, i32, i32, i32, i32, i32, ptr, ptr, i32, i32, %struct.AV1PixelRect }
%struct.AV1PixelRect = type { i32, i32, i32, i32 }
%struct.ThreadData = type { %struct.DecoderCodingBlock, %struct.CB_BUFFER, ptr, [2 x ptr], i32, i32, ptr, [2 x ptr], ptr, ptr, ptr, ptr, ptr, ptr, [24 x i8] }
%struct.CB_BUFFER = type { [3 x [16384 x i32]], [3 x [1024 x %struct.eob_info]], [2 x [16384 x i8]] }
%struct.eob_info = type { i16, i16 }
%struct.TileBufferDec = type { ptr, i64 }
%struct.AV1DecTileMTData = type { ptr, ptr, i32, i32, i32, i32 }
%struct.DataBuffer = type { ptr, i64 }
%struct.AV1DecRowMTInfo = type { i32, i32, i32, i32, i32, i32, i32, i32, i32, i32 }
%struct.aom_s_frame_info = type { i32, i32 }
%struct.RefCntBuffer = type { i32, i32, [7 x i32], i32, [7 x i32], ptr, ptr, %struct.segmentation, i32, i32, i32, i32, [8 x %struct.WarpedMotionParams], i32, i8, %struct.aom_film_grain_t, %struct.aom_codec_frame_buffer, %struct.yv12_buffer_config, i8, [4 x i32], [8 x i8], [2 x i8], %struct.frame_contexts }
%struct.frame_contexts = type { [5 x [13 x [3 x i16]]], [5 x [2 x [9 x [3 x i16]]]], [2 x [3 x [3 x i16]]], [2 x [2 x [6 x i16]]], [2 x [2 x [7 x i16]]], [2 x [2 x [8 x i16]]], [2 x [2 x [9 x i16]]], [2 x [2 x [10 x i16]]], [2 x [2 x [11 x i16]]], [2 x [2 x [12 x i16]]], [5 x [2 x [4 x [4 x i16]]]], [5 x [2 x [42 x [5 x i16]]]], [5 x [2 x [21 x [5 x i16]]]], [6 x [3 x i16]], [2 x [3 x i16]], [6 x [3 x i16]], [3 x [3 x i16]], [8 x [9 x i16]], [22 x [3 x i16]], [22 x [17 x i16]], [4 x [3 x i16]], [22 x [3 x i16]], [4 x [5 x i16]], [22 x [4 x i16]], [22 x [3 x i16]], [7 x [8 x i16]], [7 x [8 x i16]], [7 x [5 x [9 x i16]]], [7 x [5 x [9 x i16]]], [7 x [3 x [3 x i16]]], [2 x [3 x i16]], [5 x [3 x i16]], [3 x [6 x [3 x i16]]], [5 x [3 x i16]], [3 x [3 x [3 x i16]]], [3 x [3 x [3 x i16]]], [3 x [2 x [3 x i16]]], [21 x [3 x i16]], [6 x [3 x i16]], [6 x [3 x i16]], [3 x [3 x i16]], [3 x [3 x i16]], [4 x [3 x i16]], %struct.nmv_context, %struct.nmv_context, [3 x i16], %struct.segmentation_probs, [22 x [3 x i16]], [6 x i16], [4 x i16], [3 x i16], [3 x i16], [4 x [14 x i16]], [2 x [13 x [15 x i16]]], [20 x [11 x i16]], [16 x [4 x i16]], [5 x [5 x [14 x i16]]], [8 x [8 x i16]], [4 x [3 x [4 x i16]]], [5 x i16], [4 x [5 x i16]], [5 x i16], [3 x [4 x [13 x [17 x i16]]]], [4 x [4 x [17 x i16]]], [9 x i16], [6 x [17 x i16]], i32 }
%struct.nmv_context = type { [5 x i16], [2 x %struct.nmv_component] }
%struct.nmv_component = type { [12 x i16], [2 x [5 x i16]], [5 x i16], [3 x i16], [3 x i16], [3 x i16], [3 x i16], [10 x [3 x i16]] }
%struct.segmentation_probs = type { [9 x i16], [3 x [3 x i16]], [3 x [9 x i16]] }
%struct.__va_list_tag = type { i32, i32, ptr, ptr }

; Function Attrs: nounwind uwtable
define internal i32 @ctrl_get_frame_corrupted(ptr noundef %0, ptr noundef %1) #0 {
  %3 = alloca i32, align 4
  %4 = alloca ptr, align 8
  %5 = alloca ptr, align 8
  %6 = alloca ptr, align 8
  %7 = alloca ptr, align 8
  %8 = alloca ptr, align 8
  %9 = alloca ptr, align 8
  store ptr %0, ptr %4, align 8
  store ptr %1, ptr %5, align 8
  %10 = load ptr, ptr %5, align 8
  %11 = getelementptr inbounds nuw %struct.__va_list_tag, ptr %10, i32 0, i32 0
  %12 = load i32, ptr %11, align 8
  %13 = icmp ule i32 %12, 40
  br i1 %13, label %14, label %19

14:                                               ; preds = %2
  %15 = getelementptr inbounds nuw %struct.__va_list_tag, ptr %10, i32 0, i32 3
  %16 = load ptr, ptr %15, align 8
  %17 = getelementptr i8, ptr %16, i32 %12
  %18 = add i32 %12, 8
  store i32 %18, ptr %11, align 8
  br label %23

19:                                               ; preds = %2
  %20 = getelementptr inbounds nuw %struct.__va_list_tag, ptr %10, i32 0, i32 2
  %21 = load ptr, ptr %20, align 8
  %22 = getelementptr i8, ptr %21, i32 8
  store ptr %22, ptr %20, align 8
  br label %23

23:                                               ; preds = %19, %14
  %24 = phi ptr [ %17, %14 ], [ %21, %19 ]
  %25 = load ptr, ptr %24, align 8
  store ptr %25, ptr %6, align 8
  %26 = load ptr, ptr %6, align 8
  %27 = icmp ne ptr %26, null
  br i1 %27, label %28, label %68

28:                                               ; preds = %23
  %29 = load ptr, ptr %4, align 8
  %30 = getelementptr inbounds nuw %struct.aom_codec_alg_priv, ptr %29, i32 0, i32 20
  %31 = load ptr, ptr %30, align 8
  %32 = icmp ne ptr %31, null
  br i1 %32, label %33, label %67

33:                                               ; preds = %28
  %34 = load ptr, ptr %4, align 8
  %35 = getelementptr inbounds nuw %struct.aom_codec_alg_priv, ptr %34, i32 0, i32 20
  %36 = load ptr, ptr %35, align 8
  store ptr %36, ptr %7, align 8
  %37 = load ptr, ptr %7, align 8
  %38 = getelementptr inbounds nuw %struct.AVxWorker, ptr %37, i32 0, i32 4
  %39 = load ptr, ptr %38, align 8
  store ptr %39, ptr %8, align 8
  %40 = load ptr, ptr %8, align 8
  %41 = getelementptr inbounds nuw %struct.FrameWorkerData, ptr %40, i32 0, i32 0
  %42 = load ptr, ptr %41, align 8
  store ptr %42, ptr %9, align 8
  %43 = load ptr, ptr %9, align 8
  %44 = getelementptr inbounds nuw %struct.AV1Decoder, ptr %43, i32 0, i32 32
  %45 = load i32, ptr %44, align 8
  %46 = icmp ne i32 %45, 0
  br i1 %46, label %47, label %53

47:                                               ; preds = %33
  %48 = load ptr, ptr %9, align 8
  %49 = getelementptr inbounds nuw %struct.AV1Decoder, ptr %48, i32 0, i32 17
  %50 = load i64, ptr %49, align 8
  %51 = icmp eq i64 %50, 0
  br i1 %51, label %52, label %53

52:                                               ; preds = %47
  store i32 1, ptr %3, align 4
  br label %69

53:                                               ; preds = %47, %33
  %54 = load ptr, ptr %4, align 8
  %55 = getelementptr inbounds nuw %struct.aom_codec_alg_priv, ptr %54, i32 0, i32 7
  %56 = load ptr, ptr %55, align 8
  %57 = icmp ne ptr %56, null
  br i1 %57, label %58, label %66

58:                                               ; preds = %53
  %59 = load ptr, ptr %4, align 8
  %60 = getelementptr inbounds nuw %struct.aom_codec_alg_priv, ptr %59, i32 0, i32 7
  %61 = load ptr, ptr %60, align 8
  %62 = getelementptr inbounds nuw %struct.RefCntBuffer, ptr %61, i32 0, i32 17
  %63 = getelementptr inbounds nuw %struct.yv12_buffer_config, ptr %62, i32 0, i32 25
  %64 = load i32, ptr %63, align 4
  %65 = load ptr, ptr %6, align 8
  store i32 %64, ptr %65, align 4
  br label %66

66:                                               ; preds = %58, %53
  store i32 0, ptr %3, align 4
  br label %69

67:                                               ; preds = %28
  store i32 1, ptr %3, align 4
  br label %69

68:                                               ; preds = %23
  store i32 8, ptr %3, align 4
  br label %69

69:                                               ; preds = %68, %67, %66, %52
  %70 = load i32, ptr %3, align 4
  ret i32 %70
}