; Function Attrs: mustprogress nofree norecurse nosync nounwind willreturn memory(readwrite, inaccessiblemem: none) uwtable
define internal range(i32 0, 9) i32 @ctrl_get_frame_corrupted(ptr nocapture noundef readonly %0, ptr nocapture noundef %1) #7 {
  %3 = load i32, ptr %1, align 8
  %4 = icmp ult i32 %3, 41
  br i1 %4, label %5, label %11

5:                                                ; preds = %2
  %6 = getelementptr inbounds nuw i8, ptr %1, i64 16
  %7 = load ptr, ptr %6, align 8
  %8 = zext nneg i32 %3 to i64
  %9 = getelementptr i8, ptr %7, i64 %8
  %10 = add nuw nsw i32 %3, 8
  store i32 %10, ptr %1, align 8
  br label %15

11:                                               ; preds = %2
  %12 = getelementptr inbounds nuw i8, ptr %1, i64 8
  %13 = load ptr, ptr %12, align 8
  %14 = getelementptr i8, ptr %13, i64 8
  store ptr %14, ptr %12, align 8
  br label %15

15:                                               ; preds = %11, %5
  %16 = phi ptr [ %9, %5 ], [ %13, %11 ]
  %17 = load ptr, ptr %16, align 8
  %.not = icmp eq ptr %17, null
  br i1 %.not, label %37, label %18

18:                                               ; preds = %15
  %19 = getelementptr inbounds nuw i8, ptr %0, i64 27120
  %20 = load ptr, ptr %19, align 8
  %.not15 = icmp eq ptr %20, null
  br i1 %.not15, label %37, label %21

21:                                               ; preds = %18
  %22 = getelementptr inbounds nuw i8, ptr %20, i64 32
  %23 = load ptr, ptr %22, align 8
  %24 = load ptr, ptr %23, align 8
  %25 = getelementptr inbounds nuw i8, ptr %24, i64 431896
  %26 = load i32, ptr %25, align 8
  %.not16 = icmp eq i32 %26, 0
  br i1 %.not16, label %31, label %27

27:                                               ; preds = %21
  %28 = getelementptr inbounds nuw i8, ptr %24, i64 431832
  %29 = load i64, ptr %28, align 8
  %30 = icmp eq i64 %29, 0
  br i1 %30, label %37, label %31

31:                                               ; preds = %27, %21
  %32 = getelementptr inbounds nuw i8, ptr %0, i64 432
  %33 = load ptr, ptr %32, align 8
  %.not17 = icmp eq ptr %33, null
  br i1 %.not17, label %37, label %34

34:                                               ; preds = %31
  %35 = getelementptr inbounds i8, ptr %33, i64 1500
  %36 = load i32, ptr %35, align 4
  store i32 %36, ptr %17, align 4
  br label %37

37:                                               ; preds = %15, %18, %31, %34, %27
  %.0 = phi i32 [ 1, %27 ], [ 0, %34 ], [ 0, %31 ], [ 1, %18 ], [ 8, %15 ]
  ret i32 %.0
}